; Function Attrs: mustprogress uwtable
define noundef ptr @uspoof_openCheckResult_75(ptr nocapture noundef writeonly %status) local_unnamed_addr #0 personality ptr @__gxx_personality_v0 {
entry:
  %call = tail call noundef ptr @_ZN6icu_757UMemorynwEm(i64 noundef 224) #6
  %new.isnull = icmp eq ptr %call, null
  br i1 %new.isnull, label %if.then, label %new.notnull

new.notnull:                                      ; preds = %entry
  invoke void @_ZN6icu_7511CheckResultC1Ev(ptr noundef nonnull align 8 dereferenceable(220) %call)
          to label %if.end unwind label %lpad

if.then:                                          ; preds = %entry
  store i32 7, ptr %status, align 4
  br label %return

lpad:                                             ; preds = %new.notnull
  %0 = landingpad { ptr, i32 }
          cleanup
  tail call void @_ZN6icu_757UMemorydlEPv(ptr noundef nonnull %call) #6
  resume { ptr, i32 } %0

if.end:                                           ; preds = %new.notnull
  %call1 = tail call noundef ptr @_ZN6icu_7511CheckResult19asUSpoofCheckResultEv(ptr noundef nonnull align 8 dereferenceable(220) %call)
  br label %return

return:                                           ; preds = %if.end, %if.then
  %retval.0 = phi ptr [ null, %if.then ], [ %call1, %if.end ]
  ret ptr %retval.0
}